target datalayout = "e-m:e-p270:32:32-p271:32:32-p272:64:64-i64:64-i128:128-f80:128-n8:16:32:64-S128"
target triple = "x86_64-pc-linux-gnu"

%struct._generic_ARKInterp = type { ptr, ptr }
%struct._ARKInterpContent_Lagrange = type { i32, i32, ptr, ptr, i32, double }

; Function Attrs: nounwind uwtable
define double @LBasisD2(ptr noundef %0, i32 noundef %1, double noundef %2) #0 {
  %4 = alloca ptr, align 8
  %5 = alloca i32, align 4
  %6 = alloca double, align 8
  %7 = alloca i32, align 4
  %8 = alloca i32, align 4
  %9 = alloca i32, align 4
  %10 = alloca double, align 8
  %11 = alloca double, align 8
  %12 = alloca double, align 8
  store ptr %0, ptr %4, align 8, !tbaa !8
  store i32 %1, ptr %5, align 4, !tbaa !24
  store double %2, ptr %6, align 8, !tbaa !27
  call void @llvm.lifetime.start.p0(i64 4, ptr %7) #7
  call void @llvm.lifetime.start.p0(i64 4, ptr %8) #7
  call void @llvm.lifetime.start.p0(i64 4, ptr %9) #7
  call void @llvm.lifetime.start.p0(i64 8, ptr %10) #7
  call void @llvm.lifetime.start.p0(i64 8, ptr %11) #7
  call void @llvm.lifetime.start.p0(i64 8, ptr %12) #7
  store double 0.000000e+00, ptr %10, align 8, !tbaa !27
  store i32 0, ptr %9, align 4, !tbaa !24
  br label %13

13:                                               ; preds = %157, %3
  %14 = load i32, ptr %9, align 4, !tbaa !24
  %15 = load ptr, ptr %4, align 8, !tbaa !8
  %16 = getelementptr inbounds nuw %struct._generic_ARKInterp, ptr %15, i32 0, i32 0
  %17 = load ptr, ptr %16, align 8, !tbaa !35
  %18 = getelementptr inbounds nuw %struct._ARKInterpContent_Lagrange, ptr %17, i32 0, i32 4
  %19 = load i32, ptr %18, align 8, !tbaa !67
  %20 = icmp slt i32 %14, %19
  br i1 %20, label %21, label %160

21:                                               ; preds = %13
  %22 = load i32, ptr %9, align 4, !tbaa !24
  %23 = load i32, ptr %5, align 4, !tbaa !24
  %24 = icmp eq i32 %22, %23
  br i1 %24, label %25, label %26

25:                                               ; preds = %21
  br label %157

26:                                               ; preds = %21
  store double 0.000000e+00, ptr %11, align 8, !tbaa !27
  store i32 0, ptr %7, align 4, !tbaa !24
  br label %27

27:                                               ; preds = %130, %26
  %28 = load i32, ptr %7, align 4, !tbaa !24
  %29 = load ptr, ptr %4, align 8, !tbaa !8
  %30 = getelementptr inbounds nuw %struct._generic_ARKInterp, ptr %29, i32 0, i32 0
  %31 = load ptr, ptr %30, align 8, !tbaa !35
  %32 = getelementptr inbounds nuw %struct._ARKInterpContent_Lagrange, ptr %31, i32 0, i32 4
  %33 = load i32, ptr %32, align 8, !tbaa !67
  %34 = icmp slt i32 %28, %33
  br i1 %34, label %35, label %133

35:                                               ; preds = %27
  %36 = load i32, ptr %7, align 4, !tbaa !24
  %37 = load i32, ptr %5, align 4, !tbaa !24
  %38 = icmp eq i32 %36, %37
  br i1 %38, label %39, label %40

39:                                               ; preds = %35
  br label %130

40:                                               ; preds = %35
  %41 = load i32, ptr %7, align 4, !tbaa !24
  %42 = load i32, ptr %9, align 4, !tbaa !24
  %43 = icmp eq i32 %41, %42
  br i1 %43, label %44, label %45

44:                                               ; preds = %40
  br label %130

45:                                               ; preds = %40
  store double 1.000000e+00, ptr %12, align 8, !tbaa !27
  store i32 0, ptr %8, align 4, !tbaa !24
  br label %46

46:                                               ; preds = %103, %45
  %47 = load i32, ptr %8, align 4, !tbaa !24
  %48 = load ptr, ptr %4, align 8, !tbaa !8
  %49 = getelementptr inbounds nuw %struct._generic_ARKInterp, ptr %48, i32 0, i32 0
  %50 = load ptr, ptr %49, align 8, !tbaa !35
  %51 = getelementptr inbounds nuw %struct._ARKInterpContent_Lagrange, ptr %50, i32 0, i32 4
  %52 = load i32, ptr %51, align 8, !tbaa !67
  %53 = icmp slt i32 %47, %52
  br i1 %53, label %54, label %106

54:                                               ; preds = %46
  %55 = load i32, ptr %8, align 4, !tbaa !24
  %56 = load i32, ptr %5, align 4, !tbaa !24
  %57 = icmp eq i32 %55, %56
  br i1 %57, label %58, label %59

58:                                               ; preds = %54
  br label %103

59:                                               ; preds = %54
  %60 = load i32, ptr %8, align 4, !tbaa !24
  %61 = load i32, ptr %7, align 4, !tbaa !24
  %62 = icmp eq i32 %60, %61
  br i1 %62, label %63, label %64

63:                                               ; preds = %59
  br label %103

64:                                               ; preds = %59
  %65 = load i32, ptr %8, align 4, !tbaa !24
  %66 = load i32, ptr %9, align 4, !tbaa !24
  %67 = icmp eq i32 %65, %66
  br i1 %67, label %68, label %69

68:                                               ; preds = %64
  br label %103

69:                                               ; preds = %64
  %70 = load double, ptr %6, align 8, !tbaa !27
  %71 = load ptr, ptr %4, align 8, !tbaa !8
  %72 = getelementptr inbounds nuw %struct._generic_ARKInterp, ptr %71, i32 0, i32 0
  %73 = load ptr, ptr %72, align 8, !tbaa !35
  %74 = getelementptr inbounds nuw %struct._ARKInterpContent_Lagrange, ptr %73, i32 0, i32 3
  %75 = load ptr, ptr %74, align 8, !tbaa !68
  %76 = load i32, ptr %8, align 4, !tbaa !24
  %77 = sext i32 %76 to i64
  %78 = getelementptr inbounds double, ptr %75, i64 %77
  %79 = load double, ptr %78, align 8, !tbaa !27
  %80 = fsub double %70, %79
  %81 = load ptr, ptr %4, align 8, !tbaa !8
  %82 = getelementptr inbounds nuw %struct._generic_ARKInterp, ptr %81, i32 0, i32 0
  %83 = load ptr, ptr %82, align 8, !tbaa !35
  %84 = getelementptr inbounds nuw %struct._ARKInterpContent_Lagrange, ptr %83, i32 0, i32 3
  %85 = load ptr, ptr %84, align 8, !tbaa !68
  %86 = load i32, ptr %5, align 4, !tbaa !24
  %87 = sext i32 %86 to i64
  %88 = getelementptr inbounds double, ptr %85, i64 %87
  %89 = load double, ptr %88, align 8, !tbaa !27
  %90 = load ptr, ptr %4, align 8, !tbaa !8
  %91 = getelementptr inbounds nuw %struct._generic_ARKInterp, ptr %90, i32 0, i32 0
  %92 = load ptr, ptr %91, align 8, !tbaa !35
  %93 = getelementptr inbounds nuw %struct._ARKInterpContent_Lagrange, ptr %92, i32 0, i32 3
  %94 = load ptr, ptr %93, align 8, !tbaa !68
  %95 = load i32, ptr %8, align 4, !tbaa !24
  %96 = sext i32 %95 to i64
  %97 = getelementptr inbounds double, ptr %94, i64 %96
  %98 = load double, ptr %97, align 8, !tbaa !27
  %99 = fsub double %89, %98
  %100 = fdiv double %80, %99
  %101 = load double, ptr %12, align 8, !tbaa !27
  %102 = fmul double %101, %100
  store double %102, ptr %12, align 8, !tbaa !27
  br label %103

103:                                              ; preds = %69, %68, %63, %58
  %104 = load i32, ptr %8, align 4, !tbaa !24
  %105 = add nsw i32 %104, 1
  store i32 %105, ptr %8, align 4, !tbaa !24
  br label %46

106:                                              ; preds = %46
  %107 = load double, ptr %12, align 8, !tbaa !27
  %108 = load ptr, ptr %4, align 8, !tbaa !8
  %109 = getelementptr inbounds nuw %struct._generic_ARKInterp, ptr %108, i32 0, i32 0
  %110 = load ptr, ptr %109, align 8, !tbaa !35
  %111 = getelementptr inbounds nuw %struct._ARKInterpContent_Lagrange, ptr %110, i32 0, i32 3
  %112 = load ptr, ptr %111, align 8, !tbaa !68
  %113 = load i32, ptr %5, align 4, !tbaa !24
  %114 = sext i32 %113 to i64
  %115 = getelementptr inbounds double, ptr %112, i64 %114
  %116 = load double, ptr %115, align 8, !tbaa !27
  %117 = load ptr, ptr %4, align 8, !tbaa !8
  %118 = getelementptr inbounds nuw %struct._generic_ARKInterp, ptr %117, i32 0, i32 0
  %119 = load ptr, ptr %118, align 8, !tbaa !35
  %120 = getelementptr inbounds nuw %struct._ARKInterpContent_Lagrange, ptr %119, i32 0, i32 3
  %121 = load ptr, ptr %120, align 8, !tbaa !68
  %122 = load i32, ptr %7, align 4, !tbaa !24
  %123 = sext i32 %122 to i64
  %124 = getelementptr inbounds double, ptr %121, i64 %123
  %125 = load double, ptr %124, align 8, !tbaa !27
  %126 = fsub double %116, %125
  %127 = fdiv double %107, %126
  %128 = load double, ptr %11, align 8, !tbaa !27
  %129 = fadd double %128, %127
  store double %129, ptr %11, align 8, !tbaa !27
  br label %130

130:                                              ; preds = %106, %44, %39
  %131 = load i32, ptr %7, align 4, !tbaa !24
  %132 = add nsw i32 %131, 1
  store i32 %132, ptr %7, align 4, !tbaa !24
  br label %27

133:                                              ; preds = %27
  %134 = load double, ptr %11, align 8, !tbaa !27
  %135 = load ptr, ptr %4, align 8, !tbaa !8
  %136 = getelementptr inbounds nuw %struct._generic_ARKInterp, ptr %135, i32 0, i32 0
  %137 = load ptr, ptr %136, align 8, !tbaa !35
  %138 = getelementptr inbounds nuw %struct._ARKInterpContent_Lagrange, ptr %137, i32 0, i32 3
  %139 = load ptr, ptr %138, align 8, !tbaa !68
  %140 = load i32, ptr %5, align 4, !tbaa !24
  %141 = sext i32 %140 to i64
  %142 = getelementptr inbounds double, ptr %139, i64 %141
  %143 = load double, ptr %142, align 8, !tbaa !27
  %144 = load ptr, ptr %4, align 8, !tbaa !8
  %145 = getelementptr inbounds nuw %struct._generic_ARKInterp, ptr %144, i32 0, i32 0
  %146 = load ptr, ptr %145, align 8, !tbaa !35
  %147 = getelementptr inbounds nuw %struct._ARKInterpContent_Lagrange, ptr %146, i32 0, i32 3
  %148 = load ptr, ptr %147, align 8, !tbaa !68
  %149 = load i32, ptr %9, align 4, !tbaa !24
  %150 = sext i32 %149 to i64
  %151 = getelementptr inbounds double, ptr %148, i64 %150
  %152 = load double, ptr %151, align 8, !tbaa !27
  %153 = fsub double %143, %152
  %154 = fdiv double %134, %153
  %155 = load double, ptr %10, align 8, !tbaa !27
  %156 = fadd double %155, %154
  store double %156, ptr %10, align 8, !tbaa !27
  br label %157

157:                                              ; preds = %133, %25
  %158 = load i32, ptr %9, align 4, !tbaa !24
  %159 = add nsw i32 %158, 1
  store i32 %159, ptr %9, align 4, !tbaa !24
  br label %13

160:                                              ; preds = %13
  %161 = load double, ptr %10, align 8, !tbaa !27
  call void @llvm.lifetime.end.p0(i64 8, ptr %12) #7
  call void @llvm.lifetime.end.p0(i64 8, ptr %11) #7
  call void @llvm.lifetime.end.p0(i64 8, ptr %10) #7
  call void @llvm.lifetime.end.p0(i64 4, ptr %9) #7
  call void @llvm.lifetime.end.p0(i64 4, ptr %8) #7
  call void @llvm.lifetime.end.p0(i64 4, ptr %7) #7
  ret double %161
}