; Function Attrs: nofree norecurse nosync nounwind memory(read, inaccessiblemem: none) uwtable
define double @LBasisD2(ptr noundef readonly captures(none) %0, i32 noundef %1, double noundef %2) local_unnamed_addr #10 {
  %4 = load ptr, ptr %0, align 8, !tbaa !17
  %5 = getelementptr inbounds nuw i8, ptr %4, i64 24
  %6 = load i32, ptr %5, align 8, !tbaa !57
  %7 = icmp sgt i32 %6, 0
  br i1 %7, label %.lr.ph.split.us.preheader, label %._crit_edge

.lr.ph.split.us.preheader:                        ; preds = %3
  %8 = getelementptr inbounds nuw i8, ptr %4, i64 16
  %9 = sext i32 %1 to i64
  %10 = zext i32 %1 to i64
  %wide.trip.count72 = zext nneg i32 %6 to i64
  br label %.lr.ph.split.us

.lr.ph.split.us:                                  ; preds = %.lr.ph.split.us.preheader, %12
  %indvars.iv69 = phi i64 [ 0, %.lr.ph.split.us.preheader ], [ %indvars.iv.next70, %12 ]
  %.04360.us = phi double [ 0.000000e+00, %.lr.ph.split.us.preheader ], [ %.144.us, %12 ]
  %11 = icmp eq i64 %indvars.iv69, %10
  br i1 %11, label %12, label %.preheader51.us

12:                                               ; preds = %._crit_edge57.split.us.us, %.lr.ph.split.us
  %.144.us = phi double [ %.04360.us, %.lr.ph.split.us ], [ %45, %._crit_edge57.split.us.us ]
  %indvars.iv.next70 = add nuw nsw i64 %indvars.iv69, 1
  %exitcond73.not = icmp eq i64 %indvars.iv.next70, %wide.trip.count72
  br i1 %exitcond73.not, label %._crit_edge, label %.lr.ph.split.us

.preheader51.us:                                  ; preds = %.lr.ph.split.us, %29
  %indvars.iv64 = phi i64 [ %indvars.iv.next65, %29 ], [ 0, %.lr.ph.split.us ]
  %.04155.us.us = phi double [ %.142.us.us, %29 ], [ 0.000000e+00, %.lr.ph.split.us ]
  %13 = icmp eq i64 %indvars.iv64, %10
  %14 = icmp eq i64 %indvars.iv64, %indvars.iv69
  %or.cond.us.us = or i1 %13, %14
  br i1 %or.cond.us.us, label %29, label %.preheader.us.us

.preheader.us.us:                                 ; preds = %.preheader51.us, %28
  %indvars.iv = phi i64 [ %indvars.iv.next, %28 ], [ 0, %.preheader51.us ]
  %.053.us.us = phi double [ %.1.us.us, %28 ], [ 1.000000e+00, %.preheader51.us ]
  %15 = icmp eq i64 %indvars.iv, %10
  %16 = icmp eq i64 %indvars.iv, %indvars.iv64
  %or.cond49.us.us = or i1 %15, %16
  %17 = icmp eq i64 %indvars.iv, %indvars.iv69
  %or.cond50.us.us = or i1 %17, %or.cond49.us.us
  br i1 %or.cond50.us.us, label %28, label %18

18:                                               ; preds = %.preheader.us.us
  %19 = load ptr, ptr %8, align 8, !tbaa !58
  %20 = getelementptr inbounds nuw double, ptr %19, i64 %indvars.iv
  %21 = load double, ptr %20, align 8, !tbaa !47
  %22 = fsub double %2, %21
  %23 = getelementptr inbounds double, ptr %19, i64 %9
  %24 = load double, ptr %23, align 8, !tbaa !47
  %25 = fsub double %24, %21
  %26 = fdiv double %22, %25
  %27 = fmul double %.053.us.us, %26
  br label %28

28:                                               ; preds = %18, %.preheader.us.us
  %.1.us.us = phi double [ %.053.us.us, %.preheader.us.us ], [ %27, %18 ]
  %indvars.iv.next = add nuw nsw i64 %indvars.iv, 1
  %exitcond.not = icmp eq i64 %indvars.iv.next, %wide.trip.count72
  br i1 %exitcond.not, label %._crit_edge.us.us, label %.preheader.us.us

29:                                               ; preds = %._crit_edge.us.us, %.preheader51.us
  %.142.us.us = phi double [ %.04155.us.us, %.preheader51.us ], [ %37, %._crit_edge.us.us ]
  %indvars.iv.next65 = add nuw nsw i64 %indvars.iv64, 1
  %exitcond68.not = icmp eq i64 %indvars.iv.next65, %wide.trip.count72
  br i1 %exitcond68.not, label %._crit_edge57.split.us.us, label %.preheader51.us

._crit_edge.us.us:                                ; preds = %28
  %30 = load ptr, ptr %8, align 8, !tbaa !58
  %31 = getelementptr inbounds double, ptr %30, i64 %9
  %32 = load double, ptr %31, align 8, !tbaa !47
  %33 = getelementptr inbounds nuw double, ptr %30, i64 %indvars.iv64
  %34 = load double, ptr %33, align 8, !tbaa !47
  %35 = fsub double %32, %34
  %36 = fdiv double %.1.us.us, %35
  %37 = fadd double %.04155.us.us, %36
  br label %29

._crit_edge57.split.us.us:                        ; preds = %29
  %38 = load ptr, ptr %8, align 8, !tbaa !58
  %39 = getelementptr inbounds double, ptr %38, i64 %9
  %40 = load double, ptr %39, align 8, !tbaa !47
  %41 = getelementptr inbounds nuw double, ptr %38, i64 %indvars.iv69
  %42 = load double, ptr %41, align 8, !tbaa !47
  %43 = fsub double %40, %42
  %44 = fdiv double %.142.us.us, %43
  %45 = fadd double %.04360.us, %44
  br label %12

._crit_edge:                                      ; preds = %12, %3
  %.043.lcssa = phi double [ 0.000000e+00, %3 ], [ %.144.us, %12 ]
  ret double %.043.lcssa
}